target datalayout = "e-m:e-p270:32:32-p271:32:32-p272:64:64-i64:64-i128:128-f80:128-n8:16:32:64-S128"
target triple = "x86_64-pc-linux-gnu"

%struct.__va_list_tag = type { i32, i32, ptr, ptr }

@.str.28 = private unnamed_addr constant [40 x i8] c"selection method '%s': parameter '%s': \00", align 1
@.str.29 = private unnamed_addr constant [2 x i8] c"\0A\00", align 1

; Function Attrs: mustprogress nounwind uwtable
define internal void @_ZL18report_param_errorP8_IO_FILEPKcS2_S2_z(ptr noundef %0, ptr noundef %1, ptr noundef %2, ptr noundef %3, ...) #4 {
  %5 = alloca ptr, align 8
  %6 = alloca ptr, align 8
  %7 = alloca ptr, align 8
  %8 = alloca ptr, align 8
  %9 = alloca [1 x %struct.__va_list_tag], align 16
  store ptr %0, ptr %5, align 8, !tbaa !21
  store ptr %1, ptr %6, align 8, !tbaa !9
  store ptr %2, ptr %7, align 8, !tbaa !9
  store ptr %3, ptr %8, align 8, !tbaa !9
  call void @llvm.lifetime.start.p0(i64 24, ptr %9) #15
  %10 = getelementptr inbounds [1 x %struct.__va_list_tag], ptr %9, i64 0, i64 0
  call void @llvm.va_start.p0(ptr %10)
  %11 = load ptr, ptr %5, align 8, !tbaa !21
  %12 = icmp ne ptr %11, null
  br i1 %12, label %13, label %24

13:                                               ; preds = %4
  %14 = load ptr, ptr %5, align 8, !tbaa !21
  %15 = load ptr, ptr %6, align 8, !tbaa !9
  %16 = load ptr, ptr %7, align 8, !tbaa !9
  %17 = call i32 (ptr, ptr, ...) @fprintf(ptr noundef %14, ptr noundef @.str.28, ptr noundef %15, ptr noundef %16) #15
  %18 = load ptr, ptr %5, align 8, !tbaa !21
  %19 = load ptr, ptr %8, align 8, !tbaa !9
  %20 = getelementptr inbounds [1 x %struct.__va_list_tag], ptr %9, i64 0, i64 0
  %21 = call i32 @vfprintf(ptr noundef %18, ptr noundef %19, ptr noundef %20) #15
  %22 = load ptr, ptr %5, align 8, !tbaa !21
  %23 = call i32 (ptr, ptr, ...) @fprintf(ptr noundef %22, ptr noundef @.str.29) #15
  br label %24

24:                                               ; preds = %13, %4
  %25 = getelementptr inbounds [1 x %struct.__va_list_tag], ptr %9, i64 0, i64 0
  call void @llvm.va_end.p0(ptr %25)
  call void @llvm.lifetime.end.p0(i64 24, ptr %9) #15
  ret void
}