; Function Attrs: mustprogress nofree nounwind uwtable
define internal void @_ZL18report_param_errorP8_IO_FILEPKcS2_S2_z(ptr noundef %0, ptr noundef %1, ptr noundef %2, ptr noundef readonly captures(none) %3, ...) unnamed_addr #4 {
  %5 = alloca [1 x %struct.__va_list_tag], align 16
  call void @llvm.lifetime.start.p0(i64 24, ptr nonnull %5) #14
  call void @llvm.va_start.p0(ptr nonnull %5)
  %.not = icmp eq ptr %0, null
  br i1 %.not, label %9, label %6

6:                                                ; preds = %4
  %7 = call i32 (ptr, ptr, ...) @fprintf(ptr noundef nonnull %0, ptr noundef nonnull @.str.28, ptr noundef %1, ptr noundef %2) #14
  %8 = call i32 @vfprintf(ptr noundef nonnull %0, ptr noundef %3, ptr noundef nonnull %5) #14
  %fputc = call i32 @fputc(i32 10, ptr nonnull %0)
  br label %9

9:                                                ; preds = %6, %4
  call void @llvm.va_end.p0(ptr nonnull %5)
  call void @llvm.lifetime.end.p0(i64 24, ptr nonnull %5) #14
  ret void
}